target datalayout = "e-m:e-p270:32:32-p271:32:32-p272:64:64-i64:64-i128:128-f80:128-n8:16:32:64-S128"
target triple = "x86_64-pc-linux-gnu"

%struct.ResFile = type { ptr, ptr, ptr, i32, i32, ptr, i32, i32 }
%struct.SRBRoot = type { ptr, ptr, i32, i32, i8, i8, i8, ptr, ptr, i32, i32, i32, i32, i32, %"class.icu_77::UnicodeString", i32, ptr, i32, i32, i32, ptr }
%"class.icu_77::UnicodeString" = type { %"class.icu_77::Replaceable", %"union.icu_77::UnicodeString::StackBufferOrFields" }
%"class.icu_77::Replaceable" = type { %"class.icu_77::UObject" }
%"class.icu_77::UObject" = type { ptr }
%"union.icu_77::UnicodeString::StackBufferOrFields" = type { %struct.anon.0, [32 x i8] }
%struct.anon.0 = type { i16, i32, i32, ptr }
%struct.KeyMapEntry = type { i32, i32 }

; Function Attrs: mustprogress nounwind uwtable
define dso_local noundef i32 @_ZNK7SRBRoot6mapKeyEi(ptr noundef nonnull align 8 dereferenceable(176) %0, i32 noundef %1) #4 align 2 {
  %3 = alloca i32, align 4
  %4 = alloca ptr, align 8
  %5 = alloca i32, align 4
  %6 = alloca ptr, align 8
  %7 = alloca i32, align 4
  %8 = alloca i32, align 4
  %9 = alloca i32, align 4
  %10 = alloca i32, align 4
  store ptr %0, ptr %4, align 8, !tbaa !39
  store i32 %1, ptr %5, align 4, !tbaa !23
  %11 = load ptr, ptr %4, align 8
  call void @llvm.lifetime.start.p0(i64 8, ptr %6) #3
  %12 = getelementptr inbounds nuw %struct.SRBRoot, ptr %11, i32 0, i32 8
  %13 = load ptr, ptr %12, align 8, !tbaa !117
  store ptr %13, ptr %6, align 8, !tbaa !118
  %14 = load ptr, ptr %6, align 8, !tbaa !118
  %15 = icmp eq ptr %14, null
  br i1 %15, label %16, label %18

16:                                               ; preds = %2
  %17 = load i32, ptr %5, align 4, !tbaa !23
  store i32 %17, ptr %3, align 4
  store i32 1, ptr %7, align 4
  br label %57

18:                                               ; preds = %2
  call void @llvm.lifetime.start.p0(i64 4, ptr %8) #3
  call void @llvm.lifetime.start.p0(i64 4, ptr %9) #3
  call void @llvm.lifetime.start.p0(i64 4, ptr %10) #3
  %19 = getelementptr inbounds nuw %struct.SRBRoot, ptr %11, i32 0, i32 16
  %20 = load ptr, ptr %19, align 8, !tbaa !119
  %21 = getelementptr inbounds nuw %struct.ResFile, ptr %20, i32 0, i32 4
  %22 = load i32, ptr %21, align 4, !tbaa !18
  store i32 %22, ptr %9, align 4, !tbaa !23
  %23 = load i32, ptr %9, align 4, !tbaa !23
  %24 = getelementptr inbounds nuw %struct.SRBRoot, ptr %11, i32 0, i32 12
  %25 = load i32, ptr %24, align 4, !tbaa !47
  %26 = add nsw i32 %23, %25
  store i32 %26, ptr %10, align 4, !tbaa !23
  br label %27

27:                                               ; preds = %49, %18
  %28 = load i32, ptr %9, align 4, !tbaa !23
  %29 = load i32, ptr %10, align 4, !tbaa !23
  %30 = sub nsw i32 %29, 1
  %31 = icmp slt i32 %28, %30
  br i1 %31, label %32, label %50

32:                                               ; preds = %27
  %33 = load i32, ptr %9, align 4, !tbaa !23
  %34 = load i32, ptr %10, align 4, !tbaa !23
  %35 = add nsw i32 %33, %34
  %36 = sdiv i32 %35, 2
  store i32 %36, ptr %8, align 4, !tbaa !23
  %37 = load i32, ptr %5, align 4, !tbaa !23
  %38 = load ptr, ptr %6, align 8, !tbaa !118
  %39 = load i32, ptr %8, align 4, !tbaa !23
  %40 = sext i32 %39 to i64
  %41 = getelementptr inbounds %struct.KeyMapEntry, ptr %38, i64 %40
  %42 = getelementptr inbounds nuw %struct.KeyMapEntry, ptr %41, i32 0, i32 0
  %43 = load i32, ptr %42, align 4, !tbaa !120
  %44 = icmp slt i32 %37, %43
  br i1 %44, label %45, label %47

45:                                               ; preds = %32
  %46 = load i32, ptr %8, align 4, !tbaa !23
  store i32 %46, ptr %10, align 4, !tbaa !23
  br label %49

47:                                               ; preds = %32
  %48 = load i32, ptr %8, align 4, !tbaa !23
  store i32 %48, ptr %9, align 4, !tbaa !23
  br label %49

49:                                               ; preds = %47, %45
  br label %27, !llvm.loop !122

50:                                               ; preds = %27
  %51 = load ptr, ptr %6, align 8, !tbaa !118
  %52 = load i32, ptr %9, align 4, !tbaa !23
  %53 = sext i32 %52 to i64
  %54 = getelementptr inbounds %struct.KeyMapEntry, ptr %51, i64 %53
  %55 = getelementptr inbounds nuw %struct.KeyMapEntry, ptr %54, i32 0, i32 1
  %56 = load i32, ptr %55, align 4, !tbaa !123
  store i32 %56, ptr %3, align 4
  store i32 1, ptr %7, align 4
  call void @llvm.lifetime.end.p0(i64 4, ptr %10) #3
  call void @llvm.lifetime.end.p0(i64 4, ptr %9) #3
  call void @llvm.lifetime.end.p0(i64 4, ptr %8) #3
  br label %57

57:                                               ; preds = %50, %16
  call void @llvm.lifetime.end.p0(i64 8, ptr %6) #3
  %58 = load i32, ptr %3, align 4
  ret i32 %58
}