; Function Attrs: mustprogress nofree norecurse nosync nounwind willreturn memory(read, inaccessiblemem: none) uwtable
define dso_local noundef i32 @_ZNK7SRBRoot6mapKeyEi(ptr noundef nonnull readonly align 8 captures(none) dereferenceable(176) %0, i32 noundef %1) local_unnamed_addr #19 align 2 {
  %3 = getelementptr inbounds nuw i8, ptr %0, i64 40
  %4 = load ptr, ptr %3, align 8, !tbaa !77
  %5 = icmp eq ptr %4, null
  br i1 %5, label %27, label %6

6:                                                ; preds = %2
  %7 = getelementptr inbounds nuw i8, ptr %0, i64 144
  %8 = load ptr, ptr %7, align 8, !tbaa !78
  %9 = getelementptr inbounds nuw i8, ptr %8, i64 28
  %10 = load i32, ptr %9, align 4, !tbaa !79
  %11 = getelementptr inbounds nuw i8, ptr %0, i64 60
  %12 = load i32, ptr %11, align 4, !tbaa !35
  %13 = add nsw i32 %12, %10
  %14 = add nsw i32 %13, -1
  %15 = icmp slt i32 %10, %14
  br i1 %15, label %.lr.ph, label %._crit_edge

.lr.ph:                                           ; preds = %6, %.lr.ph
  %.020 = phi i32 [ %..0, %.lr.ph ], [ %13, %6 ]
  %.01519 = phi i32 [ %.015., %.lr.ph ], [ %10, %6 ]
  %16 = add nsw i32 %.020, %.01519
  %17 = sdiv i32 %16, 2
  %18 = sext i32 %17 to i64
  %19 = getelementptr inbounds %struct.KeyMapEntry, ptr %4, i64 %18
  %20 = load i32, ptr %19, align 4, !tbaa !82
  %21 = icmp slt i32 %1, %20
  %.015. = select i1 %21, i32 %.01519, i32 %17
  %..0 = select i1 %21, i32 %17, i32 %.020
  %22 = add nsw i32 %..0, -1
  %23 = icmp slt i32 %.015., %22
  br i1 %23, label %.lr.ph, label %._crit_edge, !llvm.loop !84

._crit_edge:                                      ; preds = %.lr.ph, %6
  %.015.lcssa = phi i32 [ %10, %6 ], [ %.015., %.lr.ph ]
  %24 = sext i32 %.015.lcssa to i64
  %25 = getelementptr inbounds %struct.KeyMapEntry, ptr %4, i64 %24, i32 1
  %26 = load i32, ptr %25, align 4, !tbaa !85
  br label %27

27:                                               ; preds = %2, %._crit_edge
  %.017 = phi i32 [ %26, %._crit_edge ], [ %1, %2 ]
  ret i32 %.017
}